; Function Attrs: nounwind uwtable
define ptr @l_Lean_Meta_mkEqFalse_x27(ptr noundef %0, ptr noundef %1, ptr noundef %2, ptr noundef %3, ptr noundef %4, ptr noundef %5) local_unnamed_addr #0 {
  tail call void @lean_inc_heartbeat() #5
  %7 = tail call noalias ptr @mi_malloc_small(i64 noundef 24) #5
  %8 = icmp eq ptr %7, null
  br i1 %8, label %9, label %lean_alloc_ctor.exit

9:                                                ; preds = %6
  tail call void @lean_internal_panic_out_of_memory() #6
  unreachable

lean_alloc_ctor.exit:                             ; preds = %6
  %10 = getelementptr inbounds nuw i8, ptr %7, i64 4
  store i32 1, ptr %7, align 4, !tbaa !4
  store i32 16908312, ptr %10, align 4
  %11 = getelementptr inbounds nuw i8, ptr %7, i64 8
  store ptr %0, ptr %11, align 8, !tbaa !10
  %12 = getelementptr inbounds nuw i8, ptr %7, i64 16
  store ptr inttoptr (i64 1 to ptr), ptr %12, align 8, !tbaa !10
  %13 = tail call ptr @lean_array_mk(ptr noundef nonnull %7) #5
  %14 = load ptr, ptr @l_Lean_Meta_mkEqFalse_x27___closed__2, align 8, !tbaa !10
  %15 = tail call ptr @l_Lean_Meta_mkAppM(ptr noundef %14, ptr noundef %13, ptr noundef %1, ptr noundef %2, ptr noundef %3, ptr noundef %4, ptr noundef %5)
  ret ptr %15
}